; Function Attrs: mustprogress nounwind uwtable
define hidden void @_ZN4cvc58internal6theory11quantifiers13InstMatchTrie5clearEv(ptr noundef nonnull align 8 dereferenceable(48) %this) local_unnamed_addr #4 align 2 personality ptr @__gxx_personality_v0 {
entry:
  %_M_parent.i.i.i.i = getelementptr inbounds i8, ptr %this, i64 16
  %0 = load ptr, ptr %_M_parent.i.i.i.i, align 8
  invoke void @_ZNSt8_Rb_treeIN4cvc58internal12NodeTemplateILb1EEESt4pairIKS3_NS1_6theory11quantifiers13InstMatchTrieEESt10_Select1stIS9_ESt4lessIS3_ESaIS9_EE8_M_eraseEPSt13_Rb_tree_nodeIS9_E(ptr noundef nonnull align 8 dereferenceable(48) %this, ptr noundef %0)
          to label %_ZNSt3mapIN4cvc58internal12NodeTemplateILb1EEENS1_6theory11quantifiers13InstMatchTrieESt4lessIS3_ESaISt4pairIKS3_S6_EEE5clearEv.exit unwind label %terminate.lpad.i.i

terminate.lpad.i.i:                               ; preds = %entry
  %1 = landingpad { ptr, i32 }
          catch ptr null
  %2 = extractvalue { ptr, i32 } %1, 0
  tail call void @__clang_call_terminate(ptr %2) #18
  unreachable

_ZNSt3mapIN4cvc58internal12NodeTemplateILb1EEENS1_6theory11quantifiers13InstMatchTrieESt4lessIS3_ESaISt4pairIKS3_S6_EEE5clearEv.exit: ; preds = %entry
  %add.ptr.i.i = getelementptr inbounds i8, ptr %this, i64 8
  store ptr null, ptr %_M_parent.i.i.i.i, align 8
  %_M_left.i.i.i = getelementptr inbounds i8, ptr %this, i64 24
  store ptr %add.ptr.i.i, ptr %_M_left.i.i.i, align 8
  %_M_right.i.i.i = getelementptr inbounds i8, ptr %this, i64 32
  store ptr %add.ptr.i.i, ptr %_M_right.i.i.i, align 8
  %_M_node_count.i.i.i = getelementptr inbounds i8, ptr %this, i64 40
  store i64 0, ptr %_M_node_count.i.i.i, align 8
  ret void
}